; Function Attrs: mustprogress nounwind uwtable
define hidden noundef ptr @_ZN15ciObjectFactory20get_empty_methodDataEv(ptr nocapture noundef nonnull align 8 dereferenceable(652) %0) local_unnamed_addr #0 align 2 {
  %2 = load ptr, ptr %0, align 8
  %3 = tail call noundef ptr @_ZN8ArenaObjnwEmP5Arena(i64 noundef 176, ptr noundef %2) #9
  %4 = icmp eq ptr %3, null
  br i1 %4, label %6, label %5

5:                                                ; preds = %1
  tail call void @_ZN12ciMethodDataC1EP10MethodData(ptr noundef nonnull align 8 dereferenceable(176) %3, ptr noundef null) #9
  br label %6

6:                                                ; preds = %5, %1
  %7 = getelementptr inbounds i8, ptr %0, i64 152
  %8 = load i32, ptr %7, align 8
  %9 = add nsw i32 %8, 1
  store i32 %9, ptr %7, align 8
  tail call void @_ZN12ciBaseObject9set_identEj(ptr noundef nonnull align 8 dereferenceable(12) %3, i32 noundef %8) #9
  ret ptr %3
}